; ModuleID = 'source-C-CXX/22/1010.c'
source_filename = "source-C-CXX/22/1010.c"
target datalayout = "e-m:e-p270:32:32-p271:32:32-p272:64:64-i64:64-f80:128-n8:16:32:64-S128"
target triple = "x86_64-pc-linux-gnu"

; Function Attrs: nounwind sspstrong uwtable
define dso_local void @main() local_unnamed_addr #0 {
  %1 = alloca [100 x i8], align 16
  %2 = getelementptr inbounds [100 x i8], [100 x i8]* %1, i64 0, i64 0
  call void @llvm.lifetime.start.p0i8(i64 100, i8* nonnull %2) #5
  %3 = call i32 (i8*, ...) bitcast (i32 (...)* @gets to i32 (i8*, ...)*)(i8* nonnull %2) #5
  %4 = call i64 @strlen(i8* noundef nonnull %2) #6
  %5 = trunc i64 %4 to i32
  %6 = icmp sgt i32 %5, 0
  br i1 %6, label %7, label %51

7:                                                ; preds = %0
  %8 = and i64 %4, 4294967295
  br label %9

9:                                                ; preds = %7, %47
  %10 = phi i64 [ %8, %7 ], [ %50, %47 ]
  %11 = phi i32 [ %5, %7 ], [ %13, %47 ]
  %12 = phi i32 [ 0, %7 ], [ %48, %47 ]
  %13 = add nsw i32 %11, -1
  %14 = add i32 %12, 1
  %15 = zext i32 %13 to i64
  %16 = getelementptr inbounds [100 x i8], [100 x i8]* %1, i64 0, i64 %15
  %17 = load i8, i8* %16, align 1, !tbaa !5
  %18 = icmp eq i8 %17, 32
  br i1 %18, label %19, label %33

19:                                               ; preds = %9
  %20 = icmp slt i32 %12, 1
  br i1 %20, label %31, label %21

21:                                               ; preds = %19
  %22 = zext i32 %14 to i64
  br label %23

23:                                               ; preds = %21, %23
  %24 = phi i64 [ 1, %21 ], [ %29, %23 ]
  %25 = getelementptr inbounds i8, i8* %16, i64 %24
  %26 = load i8, i8* %25, align 1, !tbaa !5
  %27 = sext i8 %26 to i32
  %28 = call i32 @putchar(i32 %27)
  %29 = add nuw nsw i64 %24, 1
  %30 = icmp eq i64 %29, %22
  br i1 %30, label %31, label %23, !llvm.loop !8

31:                                               ; preds = %23, %19
  %32 = call i32 @putchar(i32 32)
  br label %47

33:                                               ; preds = %9
  %34 = icmp eq i32 %13, 0
  %35 = icmp ult i32 %12, 2147483647
  %36 = select i1 %34, i1 %35, i1 false
  br i1 %36, label %37, label %47

37:                                               ; preds = %33
  %38 = zext i32 %14 to i64
  br label %39

39:                                               ; preds = %37, %39
  %40 = phi i64 [ 0, %37 ], [ %45, %39 ]
  %41 = getelementptr inbounds i8, i8* %16, i64 %40
  %42 = load i8, i8* %41, align 1, !tbaa !5
  %43 = sext i8 %42 to i32
  %44 = call i32 @putchar(i32 %43)
  %45 = add nuw nsw i64 %40, 1
  %46 = icmp eq i64 %45, %38
  br i1 %46, label %47, label %39, !llvm.loop !10

47:                                               ; preds = %39, %31, %33
  %48 = phi i32 [ 0, %31 ], [ %14, %33 ], [ %14, %39 ]
  %49 = icmp sgt i64 %10, 1
  %50 = add nsw i64 %10, -1
  br i1 %49, label %9, label %51, !llvm.loop !11

51:                                               ; preds = %47, %0
  call void @llvm.lifetime.end.p0i8(i64 100, i8* nonnull %2) #5
  ret void
}

; Function Attrs: argmemonly mustprogress nofree nosync nounwind willreturn
declare void @llvm.lifetime.start.p0i8(i64 immarg, i8* nocapture) #1

declare i32 @gets(...) local_unnamed_addr #2

; Function Attrs: argmemonly mustprogress nofree nounwind readonly willreturn
declare i64 @strlen(i8* nocapture) local_unnamed_addr #3

; Function Attrs: argmemonly mustprogress nofree nosync nounwind willreturn
declare void @llvm.lifetime.end.p0i8(i64 immarg, i8* nocapture) #1

; Function Attrs: nofree nounwind
declare noundef i32 @putchar(i32 noundef) local_unnamed_addr #4


!llvm.module.flags = !{!0, !1, !2, !3}
!llvm.ident = !{!4}

!0 = !{i32 1, !"wchar_size", i32 4}
!1 = !{i32 7, !"PIC Level", i32 2}
!2 = !{i32 7, !"PIE Level", i32 2}
!3 = !{i32 7, !"uwtable", i32 1}
!4 = !{!"clang version 13.0.0"}
!5 = !{!6, !6, i64 0}
!6 = !{!"omnipotent char", !7, i64 0}
!7 = !{!"Simple C/C++ TBAA"}
!8 = distinct !{!8, !9}
!9 = !{!"llvm.loop.mustprogress"}
!10 = distinct !{!10, !9}
!11 = distinct !{!11, !9}
